target datalayout = "e-m:e-p270:32:32-p271:32:32-p272:64:64-i64:64-i128:128-f80:128-n8:16:32:64-S128"
target triple = "x86_64-pc-linux-gnu"

%struct.CompactAttribute = type { i32, i16, i8, i8, i8, i8, i8, i8, i8 }
%struct.TupleDescData = type { i32, i32, i32, i32, ptr, [0 x %struct.CompactAttribute] }
%struct.MinimalTupleData = type { i32, [6 x i8], i16, i16, i8, [0 x i8] }

@.str.1 = private unnamed_addr constant [12 x i8] c"heaptuple.c\00", align 1
@.str.2 = private unnamed_addr constant [42 x i8] c"number of columns (%d) exceeds limit (%d)\00", align 1
@__func__.heap_form_minimal_tuple = private unnamed_addr constant [24 x i8] c"heap_form_minimal_tuple\00", align 1

; Function Attrs: inlinehint nounwind uwtable
define internal i32 @BITMAPLEN(i32 noundef %0) #2 {
  %2 = alloca i32, align 4
  store i32 %0, ptr %2, align 4
  %3 = load i32, ptr %2, align 4
  %4 = add i32 %3, 7
  %5 = sdiv i32 %4, 8
  ret i32 %5
}

; Function Attrs: nounwind uwtable
define dso_local ptr @heap_form_minimal_tuple(ptr noundef %0, ptr noundef %1, ptr noundef %2) #0 {
  %4 = alloca ptr, align 8
  %5 = alloca ptr, align 8
  %6 = alloca ptr, align 8
  %7 = alloca ptr, align 8
  %8 = alloca i64, align 8
  %9 = alloca i64, align 8
  %10 = alloca i32, align 4
  %11 = alloca i8, align 1
  %12 = alloca i32, align 4
  %13 = alloca i32, align 4
  store ptr %0, ptr %4, align 8
  store ptr %1, ptr %5, align 8
  store ptr %2, ptr %6, align 8
  call void @llvm.lifetime.start.p0(i64 8, ptr %7) #8
  call void @llvm.lifetime.start.p0(i64 8, ptr %8) #8
  call void @llvm.lifetime.start.p0(i64 8, ptr %9) #8
  call void @llvm.lifetime.start.p0(i64 4, ptr %10) #8
  call void @llvm.lifetime.start.p0(i64 1, ptr %11) #8
  store i8 0, ptr %11, align 1
  call void @llvm.lifetime.start.p0(i64 4, ptr %12) #8
  %14 = load ptr, ptr %4, align 8
  %15 = getelementptr inbounds nuw %struct.TupleDescData, ptr %14, i32 0, i32 0
  %16 = load i32, ptr %15, align 8
  store i32 %16, ptr %12, align 4
  call void @llvm.lifetime.start.p0(i64 4, ptr %13) #8
  %17 = load i32, ptr %12, align 4
  %18 = icmp sgt i32 %17, 1664
  br i1 %18, label %19, label %32

19:                                               ; preds = %3
  br label %20

20:                                               ; preds = %19
  br i1 true, label %21, label %23

21:                                               ; preds = %20
  %22 = call zeroext i1 @errstart_cold(i32 noundef 21, ptr noundef null) #10
  br i1 %22, label %25, label %29

23:                                               ; preds = %20
  %24 = call zeroext i1 @errstart(i32 noundef 21, ptr noundef null)
  br i1 %24, label %25, label %29

25:                                               ; preds = %23, %21
  %26 = call i32 @errcode(i32 noundef 17039621)
  %27 = load i32, ptr %12, align 4
  %28 = call i32 (ptr, ...) @errmsg(ptr noundef @.str.2, i32 noundef %27, i32 noundef 1664)
  call void @errfinish(ptr noundef @.str.1, i32 noundef 1469, ptr noundef @__func__.heap_form_minimal_tuple)
  br label %29

29:                                               ; preds = %25, %23, %21
  unreachable

30:                                               ; No predecessors!
  br label %31

31:                                               ; preds = %30
  br label %32

32:                                               ; preds = %31, %3
  store i32 0, ptr %13, align 4
  br label %33

33:                                               ; preds = %46, %32
  %34 = load i32, ptr %13, align 4
  %35 = load i32, ptr %12, align 4
  %36 = icmp slt i32 %34, %35
  br i1 %36, label %37, label %49

37:                                               ; preds = %33
  %38 = load ptr, ptr %6, align 8
  %39 = load i32, ptr %13, align 4
  %40 = sext i32 %39 to i64
  %41 = getelementptr inbounds i8, ptr %38, i64 %40
  %42 = load i8, ptr %41, align 1, !range !4, !noundef !5
  %43 = trunc i8 %42 to i1
  br i1 %43, label %44, label %45

44:                                               ; preds = %37
  store i8 1, ptr %11, align 1
  br label %49

45:                                               ; preds = %37
  br label %46

46:                                               ; preds = %45
  %47 = load i32, ptr %13, align 4
  %48 = add i32 %47, 1
  store i32 %48, ptr %13, align 4
  br label %33, !llvm.loop !21

49:                                               ; preds = %44, %33
  store i64 15, ptr %8, align 8
  %50 = load i8, ptr %11, align 1, !range !4, !noundef !5
  %51 = trunc i8 %50 to i1
  br i1 %51, label %52, label %58

52:                                               ; preds = %49
  %53 = load i32, ptr %12, align 4
  %54 = call i32 @BITMAPLEN(i32 noundef %53)
  %55 = sext i32 %54 to i64
  %56 = load i64, ptr %8, align 8
  %57 = add i64 %56, %55
  store i64 %57, ptr %8, align 8
  br label %58

58:                                               ; preds = %52, %49
  %59 = load i64, ptr %8, align 8
  %60 = add i64 %59, 7
  %61 = and i64 %60, -8
  store i64 %61, ptr %8, align 8
  %62 = trunc i64 %61 to i32
  store i32 %62, ptr %10, align 4
  %63 = load ptr, ptr %4, align 8
  %64 = load ptr, ptr %5, align 8
  %65 = load ptr, ptr %6, align 8
  %66 = call i64 @heap_compute_data_size(ptr noundef %63, ptr noundef %64, ptr noundef %65)
  store i64 %66, ptr %9, align 8
  %67 = load i64, ptr %9, align 8
  %68 = load i64, ptr %8, align 8
  %69 = add i64 %68, %67
  store i64 %69, ptr %8, align 8
  %70 = load i64, ptr %8, align 8
  %71 = call ptr @palloc0(i64 noundef %70)
  store ptr %71, ptr %7, align 8
  %72 = load i64, ptr %8, align 8
  %73 = trunc i64 %72 to i32
  %74 = load ptr, ptr %7, align 8
  %75 = getelementptr inbounds nuw %struct.MinimalTupleData, ptr %74, i32 0, i32 0
  store i32 %73, ptr %75, align 4
  %76 = load ptr, ptr %7, align 8
  %77 = getelementptr inbounds nuw %struct.MinimalTupleData, ptr %76, i32 0, i32 2
  %78 = load i16, ptr %77, align 2
  %79 = zext i16 %78 to i32
  %80 = and i32 %79, -2048
  %81 = load i32, ptr %12, align 4
  %82 = or i32 %80, %81
  %83 = trunc i32 %82 to i16
  %84 = load ptr, ptr %7, align 8
  %85 = getelementptr inbounds nuw %struct.MinimalTupleData, ptr %84, i32 0, i32 2
  store i16 %83, ptr %85, align 2
  %86 = load i32, ptr %10, align 4
  %87 = sext i32 %86 to i64
  %88 = add i64 %87, 8
  %89 = trunc i64 %88 to i8
  %90 = load ptr, ptr %7, align 8
  %91 = getelementptr inbounds nuw %struct.MinimalTupleData, ptr %90, i32 0, i32 4
  store i8 %89, ptr %91, align 2
  %92 = load ptr, ptr %4, align 8
  %93 = load ptr, ptr %5, align 8
  %94 = load ptr, ptr %6, align 8
  %95 = load ptr, ptr %7, align 8
  %96 = load i32, ptr %10, align 4
  %97 = sext i32 %96 to i64
  %98 = getelementptr inbounds i8, ptr %95, i64 %97
  %99 = load i64, ptr %9, align 8
  %100 = load ptr, ptr %7, align 8
  %101 = getelementptr inbounds nuw %struct.MinimalTupleData, ptr %100, i32 0, i32 3
  %102 = load i8, ptr %11, align 1, !range !4, !noundef !5
  %103 = trunc i8 %102 to i1
  br i1 %103, label %104, label %108

104:                                              ; preds = %58
  %105 = load ptr, ptr %7, align 8
  %106 = getelementptr inbounds nuw %struct.MinimalTupleData, ptr %105, i32 0, i32 5
  %107 = getelementptr inbounds [0 x i8], ptr %106, i64 0, i64 0
  br label %109

108:                                              ; preds = %58
  br label %109

109:                                              ; preds = %108, %104
  %110 = phi ptr [ %107, %104 ], [ null, %108 ]
  call void @heap_fill_tuple(ptr noundef %92, ptr noundef %93, ptr noundef %94, ptr noundef %98, i64 noundef %99, ptr noundef %101, ptr noundef %110)
  %111 = load ptr, ptr %7, align 8
  call void @llvm.lifetime.end.p0(i64 4, ptr %13) #8
  call void @llvm.lifetime.end.p0(i64 4, ptr %12) #8
  call void @llvm.lifetime.end.p0(i64 1, ptr %11) #8
  call void @llvm.lifetime.end.p0(i64 4, ptr %10) #8
  call void @llvm.lifetime.end.p0(i64 8, ptr %9) #8
  call void @llvm.lifetime.end.p0(i64 8, ptr %8) #8
  call void @llvm.lifetime.end.p0(i64 8, ptr %7) #8
  ret ptr %111
}