; Function Attrs: nounwind uwtable
define dso_local noundef ptr @heap_form_minimal_tuple(ptr noundef readonly captures(none) %0, ptr noundef captures(address_is_null) %1, ptr noundef captures(address_is_null) %2) local_unnamed_addr #0 {
  %4 = load i32, ptr %0, align 8
  %5 = icmp sgt i32 %4, 1664
  br i1 %5, label %7, label %.preheader

.preheader:                                       ; preds = %3
  %6 = icmp sgt i32 %4, 0
  br i1 %6, label %.lr.ph.preheader, label %.critedge

.lr.ph.preheader:                                 ; preds = %.preheader
  %wide.trip.count = zext nneg i32 %4 to i64
  br label %.lr.ph

7:                                                ; preds = %3
  %8 = tail call zeroext i1 @errstart_cold(i32 noundef 21, ptr noundef null) #14
  tail call void @llvm.assume(i1 %8)
  %9 = tail call i32 @errcode(i32 noundef 17039621) #12
  %10 = tail call i32 (ptr, ...) @errmsg(ptr noundef nonnull @.str.2, i32 noundef %4, i32 noundef 1664) #12
  tail call void @errfinish(ptr noundef nonnull @.str.1, i32 noundef 1469, ptr noundef nonnull @__func__.heap_form_minimal_tuple) #12
  unreachable

11:                                               ; preds = %.lr.ph
  %indvars.iv.next = add nuw nsw i64 %indvars.iv, 1
  %exitcond.not = icmp eq i64 %indvars.iv.next, %wide.trip.count
  br i1 %exitcond.not, label %.critedge, label %.lr.ph, !llvm.loop !21

.lr.ph:                                           ; preds = %.lr.ph.preheader, %11
  %indvars.iv = phi i64 [ 0, %.lr.ph.preheader ], [ %indvars.iv.next, %11 ]
  %12 = getelementptr inbounds nuw i8, ptr %2, i64 %indvars.iv
  %13 = load i8, ptr %12, align 1, !range !4, !noundef !5
  %14 = trunc nuw i8 %13 to i1
  br i1 %14, label %15, label %11

15:                                               ; preds = %.lr.ph
  %16 = add nuw i32 %4, 7
  %17 = sdiv i32 %16, 8
  %narrow = add nsw i32 %17, 22
  %18 = and i32 %narrow, -8
  %19 = sext i32 %18 to i64
  br label %.critedge

.critedge:                                        ; preds = %11, %.preheader, %15
  %20 = phi i1 [ true, %15 ], [ false, %.preheader ], [ false, %11 ]
  %.034 = phi i64 [ %19, %15 ], [ 16, %.preheader ], [ 16, %11 ]
  %21 = tail call i64 @heap_compute_data_size(ptr noundef nonnull %0, ptr noundef %1, ptr noundef %2)
  %22 = add i64 %21, %.034
  %23 = tail call ptr @palloc0(i64 noundef %22) #12
  %24 = trunc i64 %22 to i32
  store i32 %24, ptr %23, align 4
  %25 = getelementptr inbounds nuw i8, ptr %23, i64 10
  %26 = load i16, ptr %25, align 2
  %27 = and i16 %26, -2048
  %28 = trunc i32 %4 to i16
  %29 = or i16 %27, %28
  store i16 %29, ptr %25, align 2
  %30 = trunc i64 %.034 to i8
  %31 = add i8 %30, 8
  %32 = getelementptr inbounds nuw i8, ptr %23, i64 14
  store i8 %31, ptr %32, align 2
  %33 = getelementptr inbounds i8, ptr %23, i64 %.034
  %34 = getelementptr inbounds nuw i8, ptr %23, i64 12
  %35 = getelementptr inbounds nuw i8, ptr %23, i64 15
  %spec.select = select i1 %20, ptr %35, ptr null
  tail call void @heap_fill_tuple(ptr noundef nonnull %0, ptr noundef %1, ptr noundef %2, ptr noundef nonnull %33, i64 poison, ptr noundef nonnull %34, ptr noundef %spec.select)
  ret ptr %23
}